; Function Attrs: nounwind uwtable
define ptr @pmix_show_help_string(ptr noundef %0, ptr noundef %1, i32 noundef %2, ...) local_unnamed_addr #0 {
  %4 = alloca [1 x %struct.__va_list_tag], align 16
  call void @llvm.lifetime.start.p0(i64 24, ptr nonnull %4) #18
  call void @llvm.va_start.p0(ptr nonnull %4)
  %5 = call ptr @pmix_show_help_vstring(ptr noundef %0, ptr noundef %1, i32 noundef %2, ptr noundef nonnull %4)
  call void @llvm.va_end.p0(ptr nonnull %4)
  call void @llvm.lifetime.end.p0(i64 24, ptr nonnull %4) #18
  ret ptr %5
}